; Function Attrs: nounwind uwtable
define dso_local ptr @SPI_cursor_parse_open(ptr noundef %0, ptr noundef %1, ptr noundef readonly captures(address_is_null) %2) local_unnamed_addr #0 {
  %4 = alloca %struct._SPI_plan, align 8
  call void @llvm.lifetime.start.p0(i64 64, ptr nonnull %4) #15
  %5 = icmp eq ptr %1, null
  %6 = icmp eq ptr %2, null
  %or.cond = or i1 %5, %6
  br i1 %or.cond, label %7, label %10

7:                                                ; preds = %3
  %8 = tail call zeroext i1 @errstart_cold(i32 noundef 21, ptr noundef null) #14
  tail call void @llvm.assume(i1 %8)
  %9 = tail call i32 (ptr, ...) @errmsg_internal(ptr noundef nonnull @.str.13) #15
  tail call void @errfinish(ptr noundef nonnull @.str.1, i32 noundef 1541, ptr noundef nonnull @__func__.SPI_cursor_parse_open) #15
  unreachable

10:                                               ; preds = %3
  %11 = load ptr, ptr @_SPI_current, align 8
  %.not15 = icmp eq ptr %11, null
  br i1 %.not15, label %_SPI_begin_call.exit, label %_SPI_begin_call.exit.thread

_SPI_begin_call.exit.thread:                      ; preds = %10
  %12 = tail call i32 @GetCurrentSubTransactionId() #15
  %13 = load ptr, ptr @_SPI_current, align 8
  %14 = getelementptr inbounds nuw i8, ptr %13, i64 16
  store i32 %12, ptr %14, align 8
  %15 = getelementptr inbounds nuw i8, ptr %13, i64 40
  %16 = load ptr, ptr %15, align 8
  store ptr %16, ptr @CurrentMemoryContext, align 8
  store i32 0, ptr @SPI_result, align 4
  call void @llvm.memset.p0.i64(ptr noundef nonnull align 8 dereferenceable(64) %4, i8 0, i64 64, i1 false)
  store i32 569278163, ptr %4, align 8
  %17 = getelementptr inbounds nuw i8, ptr %2, i64 8
  %18 = load i32, ptr %17, align 8
  %19 = getelementptr inbounds nuw i8, ptr %4, i64 28
  store i32 %18, ptr %19, align 4
  %20 = load ptr, ptr %2, align 8
  %.not = icmp eq ptr %20, null
  br i1 %.not, label %30, label %23

_SPI_begin_call.exit:                             ; preds = %10
  store i32 -4, ptr @SPI_result, align 4
  %21 = tail call zeroext i1 @errstart_cold(i32 noundef 21, ptr noundef null) #14
  tail call void @llvm.assume(i1 %21)
  %22 = tail call i32 (ptr, ...) @errmsg_internal(ptr noundef nonnull @.str.14) #15
  tail call void @errfinish(ptr noundef nonnull @.str.1, i32 noundef 1545, ptr noundef nonnull @__func__.SPI_cursor_parse_open) #15
  unreachable

23:                                               ; preds = %_SPI_begin_call.exit.thread
  %24 = getelementptr inbounds nuw i8, ptr %20, i64 32
  %25 = load ptr, ptr %24, align 8
  %26 = getelementptr inbounds nuw i8, ptr %4, i64 48
  store ptr %25, ptr %26, align 8
  %27 = getelementptr inbounds nuw i8, ptr %20, i64 40
  %28 = load ptr, ptr %27, align 8
  %29 = getelementptr inbounds nuw i8, ptr %4, i64 56
  store ptr %28, ptr %29, align 8
  br label %30

30:                                               ; preds = %23, %_SPI_begin_call.exit.thread
  call fastcc void @_SPI_prepare_plan(ptr noundef %1, ptr noundef %4)
  %31 = load ptr, ptr %2, align 8
  %32 = getelementptr inbounds nuw i8, ptr %2, i64 12
  %33 = load i8, ptr %32, align 4, !range !4, !noundef !5
  %34 = trunc nuw i8 %33 to i1
  %35 = call fastcc ptr @SPI_cursor_open_internal(ptr noundef %0, ptr noundef nonnull %4, ptr noundef %31, i1 noundef zeroext %34)
  %36 = load ptr, ptr @_SPI_current, align 8
  %37 = getelementptr inbounds nuw i8, ptr %36, i64 32
  %38 = load ptr, ptr %37, align 8
  store ptr %38, ptr @CurrentMemoryContext, align 8
  %39 = getelementptr inbounds nuw i8, ptr %36, i64 16
  store i32 0, ptr %39, align 8
  %40 = getelementptr inbounds nuw i8, ptr %36, i64 40
  %41 = load ptr, ptr %40, align 8
  call void @MemoryContextReset(ptr noundef %41) #15
  call void @llvm.lifetime.end.p0(i64 64, ptr nonnull %4) #15
  ret ptr %35
}